; ModuleID = 'bench/abc/original/utilSignal.ll'
source_filename = "bench/abc/original/utilSignal.ll"
target datalayout = "e-m:e-p270:32:32-p271:32:32-p272:64:64-i64:64-i128:128-f80:128-n8:16:32:64-S128"
target triple = "x86_64-pc-linux-gnu"

; Function Attrs: nofree nounwind uwtable
define noundef i32 @Util_SignalSystem(ptr noundef readonly captures(none) %0) local_unnamed_addr #0 {
  %2 = tail call i32 @system(ptr noundef %0) #5
  ret i32 %2
}

; Function Attrs: nofree
declare noundef i32 @system(ptr noundef readonly captures(none)) local_unnamed_addr #1

; Function Attrs: nounwind uwtable
define i32 @Util_SignalTmpFile(ptr noundef %0, ptr noundef %1, ptr noundef %2) local_unnamed_addr #2 {
  %4 = tail call i32 @tmpFile(ptr noundef %0, ptr noundef %1, ptr noundef %2) #5
  ret i32 %4
}

declare i32 @tmpFile(ptr noundef, ptr noundef, ptr noundef) local_unnamed_addr #3

; Function Attrs: nofree nounwind uwtable
define void @Util_SignalTmpFileRemove(ptr noundef readonly captures(none) %0, i32 noundef %1) local_unnamed_addr #0 {
  %.not = icmp eq i32 %1, 0
  br i1 %.not, label %3, label %5

3:                                                ; preds = %2
  %4 = tail call i32 @unlink(ptr noundef %0) #5
  br label %5

5:                                                ; preds = %3, %2
  ret void
}

; Function Attrs: nofree nounwind
declare noundef i32 @unlink(ptr noundef readonly captures(none)) local_unnamed_addr #4


!llvm.module.flags = !{!0, !1, !2}

!0 = !{i32 1, !"wchar_size", i32 4}
!1 = !{i32 8, !"PIC Level", i32 2}
!2 = !{i32 7, !"uwtable", i32 2}
